target datalayout = "e-m:e-p270:32:32-p271:32:32-p272:64:64-i64:64-i128:128-f80:128-n8:16:32:64-S128"
target triple = "x86_64-pc-linux-gnu"

%"class.std::__cxx11::basic_string" = type { %"struct.std::__cxx11::basic_string<char>::_Alloc_hider", i64, %union.anon }
%"struct.std::__cxx11::basic_string<char>::_Alloc_hider" = type { ptr }
%union.anon = type { i64, [8 x i8] }
%"class.google::protobuf::internal::LogMessage" = type { i32, ptr, i32, %"class.std::__cxx11::basic_string" }
%"class.google::protobuf::internal::LogFinisher" = type { i8 }

@.str = private unnamed_addr constant [146 x i8] c"generated/home/dtcxzyw/WorkSpace/Projects/compilers/llvm-opt-benchmark/bench/opencv/opencv/3rdparty/protobuf/src/google/protobuf/stubs/strutil.cc\00", align 1
@.str.11 = private unnamed_addr constant [4 x i8] c"inf\00", align 1
@.str.12 = private unnamed_addr constant [5 x i8] c"-inf\00", align 1
@.str.13 = private unnamed_addr constant [4 x i8] c"nan\00", align 1
@.str.14 = private unnamed_addr constant [5 x i8] c"%.*g\00", align 1
@.str.15 = private unnamed_addr constant [77 x i8] c"CHECK failed: snprintf_result > 0 && snprintf_result < kDoubleToBufferSize: \00", align 1

; Function Attrs: mustprogress nounwind uwtable
define linkonce_odr noundef zeroext i1 @_ZSt5isnand(double noundef %0) #6 comdat {
  %2 = alloca double, align 8
  store double %0, ptr %2, align 8, !tbaa !73
  %3 = load double, ptr %2, align 8, !tbaa !73
  %4 = call i1 @llvm.is.fpclass.f64(double %3, i32 3)
  ret i1 %4
}

; Function Attrs: mustprogress nounwind uwtable
define linkonce_odr hidden noundef double @_ZNSt14numeric_limitsIdE8infinityEv() #6 comdat align 2 {
  ret double 0x7FF0000000000000
}

; Function Attrs: mustprogress uwtable
define hidden noundef ptr @_ZN6google8protobuf14DoubleToBufferEdPc(double noundef %0, ptr noundef %1) #4 personality ptr @__gxx_personality_v0 {
  %3 = alloca ptr, align 8
  %4 = alloca double, align 8
  %5 = alloca ptr, align 8
  %6 = alloca i32, align 4
  %7 = alloca %"class.google::protobuf::internal::LogMessage", align 8
  %8 = alloca i1, align 1
  %9 = alloca i1, align 1
  %10 = alloca ptr, align 8
  %11 = alloca i32, align 4
  %12 = alloca %"class.google::protobuf::internal::LogFinisher", align 1
  %13 = alloca double, align 8
  %14 = alloca %"class.google::protobuf::internal::LogMessage", align 8
  %15 = alloca i1, align 1
  %16 = alloca i1, align 1
  %17 = alloca %"class.google::protobuf::internal::LogFinisher", align 1
  store double %0, ptr %4, align 8, !tbaa !73
  store ptr %1, ptr %5, align 8, !tbaa !8
  %18 = load double, ptr %4, align 8, !tbaa !73
  %19 = call noundef double @_ZNSt14numeric_limitsIdE8infinityEv() #3
  %20 = fcmp oeq double %18, %19
  br i1 %20, label %21, label %25

21:                                               ; preds = %2
  %22 = load ptr, ptr %5, align 8, !tbaa !8
  %23 = call ptr @strcpy(ptr noundef %22, ptr noundef @.str.11) #3
  %24 = load ptr, ptr %5, align 8, !tbaa !8
  store ptr %24, ptr %3, align 8
  br label %130

25:                                               ; preds = %2
  %26 = load double, ptr %4, align 8, !tbaa !73
  %27 = call noundef double @_ZNSt14numeric_limitsIdE8infinityEv() #3
  %28 = fneg double %27
  %29 = fcmp oeq double %26, %28
  br i1 %29, label %30, label %34

30:                                               ; preds = %25
  %31 = load ptr, ptr %5, align 8, !tbaa !8
  %32 = call ptr @strcpy(ptr noundef %31, ptr noundef @.str.12) #3
  %33 = load ptr, ptr %5, align 8, !tbaa !8
  store ptr %33, ptr %3, align 8
  br label %130

34:                                               ; preds = %25
  %35 = load double, ptr %4, align 8, !tbaa !73
  %36 = call noundef zeroext i1 @_ZSt5isnand(double noundef %35)
  br i1 %36, label %37, label %41

37:                                               ; preds = %34
  %38 = load ptr, ptr %5, align 8, !tbaa !8
  %39 = call ptr @strcpy(ptr noundef %38, ptr noundef @.str.13) #3
  %40 = load ptr, ptr %5, align 8, !tbaa !8
  store ptr %40, ptr %3, align 8
  br label %130

41:                                               ; preds = %34
  br label %42

42:                                               ; preds = %41
  br label %43

43:                                               ; preds = %42
  call void @llvm.lifetime.start.p0(i64 4, ptr %6) #3
  %44 = load ptr, ptr %5, align 8, !tbaa !8
  %45 = load double, ptr %4, align 8, !tbaa !73
  %46 = call i32 (ptr, i64, ptr, ...) @snprintf(ptr noundef %44, i64 noundef 32, ptr noundef @.str.14, i32 noundef 15, double noundef %45) #3
  store i32 %46, ptr %6, align 4, !tbaa !15
  br label %47

47:                                               ; preds = %65, %43
  br i1 false, label %48, label %81

48:                                               ; preds = %47
  %49 = load i32, ptr %6, align 4, !tbaa !15
  %50 = icmp sgt i32 %49, 0
  store i1 false, ptr %8, align 1
  store i1 false, ptr %9, align 1
  call void @llvm.lifetime.start.p0(i64 1, ptr %12) #3
  br i1 %50, label %51, label %55

51:                                               ; preds = %48
  %52 = load i32, ptr %6, align 4, !tbaa !15
  %53 = icmp slt i32 %52, 32
  br i1 %53, label %54, label %55

54:                                               ; preds = %51
  br label %59

55:                                               ; preds = %51, %48
  call void @llvm.lifetime.start.p0(i64 56, ptr %7) #3
  store i1 true, ptr %8, align 1
  call void @_ZN6google8protobuf8internal10LogMessageC1ENS0_8LogLevelEPKci(ptr noundef nonnull align 8 dereferenceable(56) %7, i32 noundef 3, ptr noundef @.str, i32 noundef 1265)
  store i1 true, ptr %9, align 1
  %56 = invoke noundef nonnull align 8 dereferenceable(56) ptr @_ZN6google8protobuf8internal10LogMessagelsEPKc(ptr noundef nonnull align 8 dereferenceable(56) %7, ptr noundef @.str.15)
          to label %57 unwind label %66

57:                                               ; preds = %55
  invoke void @_ZN6google8protobuf8internal11LogFinisheraSERNS1_10LogMessageE(ptr noundef nonnull align 1 dereferenceable(1) %12, ptr noundef nonnull align 8 dereferenceable(56) %56)
          to label %58 unwind label %70

58:                                               ; preds = %57
  br label %59

59:                                               ; preds = %58, %54
  call void @llvm.lifetime.end.p0(i64 1, ptr %12) #3
  %60 = load i1, ptr %9, align 1
  br i1 %60, label %61, label %62

61:                                               ; preds = %59
  call void @_ZN6google8protobuf8internal10LogMessageD1Ev(ptr noundef nonnull align 8 dereferenceable(56) %7) #3
  br label %62

62:                                               ; preds = %61, %59
  %63 = load i1, ptr %8, align 1
  br i1 %63, label %64, label %65

64:                                               ; preds = %62
  call void @llvm.lifetime.end.p0(i64 56, ptr %7) #3
  br label %65

65:                                               ; preds = %64, %62
  br label %47, !llvm.loop !75

66:                                               ; preds = %55
  %67 = landingpad { ptr, i32 }
          cleanup
  %68 = extractvalue { ptr, i32 } %67, 0
  store ptr %68, ptr %10, align 8
  %69 = extractvalue { ptr, i32 } %67, 1
  store i32 %69, ptr %11, align 4
  br label %74

70:                                               ; preds = %57
  %71 = landingpad { ptr, i32 }
          cleanup
  %72 = extractvalue { ptr, i32 } %71, 0
  store ptr %72, ptr %10, align 8
  %73 = extractvalue { ptr, i32 } %71, 1
  store i32 %73, ptr %11, align 4
  call void @llvm.lifetime.end.p0(i64 1, ptr %12) #3
  br label %74

74:                                               ; preds = %70, %66
  %75 = load i1, ptr %9, align 1
  br i1 %75, label %76, label %77

76:                                               ; preds = %74
  call void @_ZN6google8protobuf8internal10LogMessageD1Ev(ptr noundef nonnull align 8 dereferenceable(56) %7) #3
  br label %77

77:                                               ; preds = %76, %74
  %78 = load i1, ptr %8, align 1
  br i1 %78, label %79, label %80

79:                                               ; preds = %77
  call void @llvm.lifetime.end.p0(i64 56, ptr %7) #3
  br label %80

80:                                               ; preds = %79, %77
  br label %129

81:                                               ; preds = %47
  call void @llvm.lifetime.start.p0(i64 8, ptr %13) #3
  %82 = load ptr, ptr %5, align 8, !tbaa !8
  %83 = call noundef double @_ZN6google8protobuf8internal14NoLocaleStrtodEPKcPPc(ptr noundef %82, ptr noundef null)
  store volatile double %83, ptr %13, align 8, !tbaa !73
  %84 = load volatile double, ptr %13, align 8, !tbaa !73
  %85 = load double, ptr %4, align 8, !tbaa !73
  %86 = fcmp une double %84, %85
  br i1 %86, label %87, label %126

87:                                               ; preds = %81
  %88 = load ptr, ptr %5, align 8, !tbaa !8
  %89 = load double, ptr %4, align 8, !tbaa !73
  %90 = call i32 (ptr, i64, ptr, ...) @snprintf(ptr noundef %88, i64 noundef 32, ptr noundef @.str.14, i32 noundef 17, double noundef %89) #3
  store i32 %90, ptr %6, align 4, !tbaa !15
  br label %91

91:                                               ; preds = %109, %87
  br i1 false, label %92, label %125

92:                                               ; preds = %91
  %93 = load i32, ptr %6, align 4, !tbaa !15
  %94 = icmp sgt i32 %93, 0
  store i1 false, ptr %15, align 1
  store i1 false, ptr %16, align 1
  call void @llvm.lifetime.start.p0(i64 1, ptr %17) #3
  br i1 %94, label %95, label %99

95:                                               ; preds = %92
  %96 = load i32, ptr %6, align 4, !tbaa !15
  %97 = icmp slt i32 %96, 32
  br i1 %97, label %98, label %99

98:                                               ; preds = %95
  br label %103

99:                                               ; preds = %95, %92
  call void @llvm.lifetime.start.p0(i64 56, ptr %14) #3
  store i1 true, ptr %15, align 1
  call void @_ZN6google8protobuf8internal10LogMessageC1ENS0_8LogLevelEPKci(ptr noundef nonnull align 8 dereferenceable(56) %14, i32 noundef 3, ptr noundef @.str, i32 noundef 1279)
  store i1 true, ptr %16, align 1
  %100 = invoke noundef nonnull align 8 dereferenceable(56) ptr @_ZN6google8protobuf8internal10LogMessagelsEPKc(ptr noundef nonnull align 8 dereferenceable(56) %14, ptr noundef @.str.15)
          to label %101 unwind label %110

101:                                              ; preds = %99
  invoke void @_ZN6google8protobuf8internal11LogFinisheraSERNS1_10LogMessageE(ptr noundef nonnull align 1 dereferenceable(1) %17, ptr noundef nonnull align 8 dereferenceable(56) %100)
          to label %102 unwind label %114

102:                                              ; preds = %101
  br label %103

103:                                              ; preds = %102, %98
  call void @llvm.lifetime.end.p0(i64 1, ptr %17) #3
  %104 = load i1, ptr %16, align 1
  br i1 %104, label %105, label %106

105:                                              ; preds = %103
  call void @_ZN6google8protobuf8internal10LogMessageD1Ev(ptr noundef nonnull align 8 dereferenceable(56) %14) #3
  br label %106

106:                                              ; preds = %105, %103
  %107 = load i1, ptr %15, align 1
  br i1 %107, label %108, label %109

108:                                              ; preds = %106
  call void @llvm.lifetime.end.p0(i64 56, ptr %14) #3
  br label %109

109:                                              ; preds = %108, %106
  br label %91, !llvm.loop !76

110:                                              ; preds = %99
  %111 = landingpad { ptr, i32 }
          cleanup
  %112 = extractvalue { ptr, i32 } %111, 0
  store ptr %112, ptr %10, align 8
  %113 = extractvalue { ptr, i32 } %111, 1
  store i32 %113, ptr %11, align 4
  br label %118

114:                                              ; preds = %101
  %115 = landingpad { ptr, i32 }
          cleanup
  %116 = extractvalue { ptr, i32 } %115, 0
  store ptr %116, ptr %10, align 8
  %117 = extractvalue { ptr, i32 } %115, 1
  store i32 %117, ptr %11, align 4
  call void @llvm.lifetime.end.p0(i64 1, ptr %17) #3
  br label %118

118:                                              ; preds = %114, %110
  %119 = load i1, ptr %16, align 1
  br i1 %119, label %120, label %121

120:                                              ; preds = %118
  call void @_ZN6google8protobuf8internal10LogMessageD1Ev(ptr noundef nonnull align 8 dereferenceable(56) %14) #3
  br label %121

121:                                              ; preds = %120, %118
  %122 = load i1, ptr %15, align 1
  br i1 %122, label %123, label %124

123:                                              ; preds = %121
  call void @llvm.lifetime.end.p0(i64 56, ptr %14) #3
  br label %124

124:                                              ; preds = %123, %121
  call void @llvm.lifetime.end.p0(i64 8, ptr %13) #3
  br label %129

125:                                              ; preds = %91
  br label %126

126:                                              ; preds = %125, %81
  %127 = load ptr, ptr %5, align 8, !tbaa !8
  call void @_ZN6google8protobuf15DelocalizeRadixEPc(ptr noundef %127)
  %128 = load ptr, ptr %5, align 8, !tbaa !8
  store ptr %128, ptr %3, align 8
  call void @llvm.lifetime.end.p0(i64 8, ptr %13) #3
  call void @llvm.lifetime.end.p0(i64 4, ptr %6) #3
  br label %130

129:                                              ; preds = %124, %80
  call void @llvm.lifetime.end.p0(i64 4, ptr %6) #3
  br label %132

130:                                              ; preds = %126, %37, %30, %21
  %131 = load ptr, ptr %3, align 8
  ret ptr %131

132:                                              ; preds = %129
  %133 = load ptr, ptr %10, align 8
  %134 = load i32, ptr %11, align 4
  %135 = insertvalue { ptr, i32 } poison, ptr %133, 0
  %136 = insertvalue { ptr, i32 } %135, i32 %134, 1
  resume { ptr, i32 } %136
}