; Function Attrs: mustprogress uwtable
define hidden noundef ptr @_ZN6google8protobuf14DoubleToBufferEdPc(double noundef %0, ptr noundef returned %1) local_unnamed_addr #6 personality ptr @__gxx_personality_v0 {
  %3 = alloca double, align 8
  %4 = fcmp oeq double %0, 0x7FF0000000000000
  br i1 %4, label %5, label %6

5:                                                ; preds = %2
  store i32 6712937, ptr %1, align 1
  br label %19

6:                                                ; preds = %2
  %7 = fcmp oeq double %0, 0xFFF0000000000000
  br i1 %7, label %8, label %9

8:                                                ; preds = %6
  tail call void @llvm.memcpy.p0.p0.i64(ptr noundef nonnull align 1 dereferenceable(5) %1, ptr noundef nonnull align 1 dereferenceable(5) @.str.12, i64 5, i1 false) #31
  br label %19

9:                                                ; preds = %6
  %10 = fcmp uno double %0, 0.000000e+00
  br i1 %10, label %11, label %12

11:                                               ; preds = %9
  store i32 7233902, ptr %1, align 1
  br label %19

12:                                               ; preds = %9
  %13 = tail call i32 (ptr, i64, ptr, ...) @snprintf(ptr noundef nonnull dereferenceable(1) %1, i64 noundef 32, ptr noundef nonnull @.str.14, i32 noundef 15, double noundef %0) #31
  call void @llvm.lifetime.start.p0(i64 8, ptr nonnull %3)
  %14 = tail call noundef double @_ZN6google8protobuf8internal14NoLocaleStrtodEPKcPPc(ptr noundef nonnull %1, ptr noundef null)
  store volatile double %14, ptr %3, align 8, !tbaa !73
  %.0..0..0..0. = load volatile double, ptr %3, align 8, !tbaa !73
  %15 = fcmp une double %.0..0..0..0., %0
  br i1 %15, label %16, label %18

16:                                               ; preds = %12
  %17 = tail call i32 (ptr, i64, ptr, ...) @snprintf(ptr noundef nonnull dereferenceable(1) %1, i64 noundef 32, ptr noundef nonnull @.str.14, i32 noundef 17, double noundef %0) #31
  br label %18

18:                                               ; preds = %16, %12
  tail call void @_ZN6google8protobuf15DelocalizeRadixEPc(ptr noundef nonnull %1)
  call void @llvm.lifetime.end.p0(i64 8, ptr nonnull %3)
  br label %19

19:                                               ; preds = %18, %11, %8, %5
  ret ptr %1
}